; Function Attrs: mustprogress nounwind uwtable
define internal void @"_ZN7doctest6detail12ContextScopeIZN4Luau7Fixture14loadDefinitionERKNSt7__cxx1112basic_stringIcSt11char_traitsIcESaIcEEEE3$_0ED0Ev"(ptr noundef nonnull align 8 dereferenceable(10) initializes((0, 8)) %0) unnamed_addr #1 align 2 personality ptr @__gxx_personality_v0 {
  store ptr getelementptr inbounds nuw inrange(-16, 24) (i8, ptr @"_ZTVN7doctest6detail12ContextScopeIZN4Luau7Fixture14loadDefinitionERKNSt7__cxx1112basic_stringIcSt11char_traitsIcESaIcEEEE3$_0EE", i64 16), ptr %0, align 8
  %2 = getelementptr inbounds nuw i8, ptr %0, i64 8
  %3 = load i8, ptr %2, align 8
  %4 = trunc i8 %3 to i1
  br i1 %4, label %5, label %"_ZN7doctest6detail12ContextScopeIZN4Luau7Fixture14loadDefinitionERKNSt7__cxx1112basic_stringIcSt11char_traitsIcESaIcEEEE3$_0ED2Ev.exit"

5:                                                ; preds = %1
  invoke void @_ZN7doctest6detail16ContextScopeBase7destroyEv(ptr noundef nonnull align 8 dereferenceable(10) %0)
          to label %"_ZN7doctest6detail12ContextScopeIZN4Luau7Fixture14loadDefinitionERKNSt7__cxx1112basic_stringIcSt11char_traitsIcESaIcEEEE3$_0ED2Ev.exit" unwind label %6

6:                                                ; preds = %5
  %7 = landingpad { ptr, i32 }
          catch ptr null
  %8 = extractvalue { ptr, i32 } %7, 0
  tail call void @__clang_call_terminate(ptr %8) #25
  unreachable

"_ZN7doctest6detail12ContextScopeIZN4Luau7Fixture14loadDefinitionERKNSt7__cxx1112basic_stringIcSt11char_traitsIcESaIcEEEE3$_0ED2Ev.exit": ; preds = %1, %5
  tail call void @_ZN7doctest13IContextScopeD2Ev(ptr noundef nonnull align 8 dereferenceable(10) %0) #27
  tail call void @_ZdlPvm(ptr noundef nonnull %0, i64 noundef 16) #26
  ret void
}